; Function Attrs: mustprogress uwtable
define noalias noundef nonnull ptr @lean_io_prim_handle_flush(ptr noundef readonly captures(none) %0, ptr noundef readnone captures(none) %1) local_unnamed_addr #0 {
  %3 = getelementptr i8, ptr %0, i64 16
  %.val = load ptr, ptr %3, align 8, !tbaa !39
  %4 = tail call i32 @fflush(ptr noundef %.val)
  %.not = icmp eq i32 %4, 0
  br i1 %.not, label %5, label %9

5:                                                ; preds = %2
  tail call void @lean_inc_heartbeat()
  %6 = tail call noalias ptr @mi_malloc_small(i64 noundef 24) #27
  %7 = icmp eq ptr %6, null
  br i1 %7, label %8, label %_ZN4lean15io_result_mk_okEP11lean_object.exit

8:                                                ; preds = %5
  tail call void @lean_internal_panic_out_of_memory() #28
  unreachable

9:                                                ; preds = %2
  %10 = tail call ptr @__errno_location() #30
  %11 = load i32, ptr %10, align 4, !tbaa !44
  %12 = tail call noundef ptr @lean_decode_io_error(i32 noundef %11, ptr noundef null)
  tail call void @lean_inc_heartbeat()
  %13 = tail call noalias ptr @mi_malloc_small(i64 noundef 24) #27
  %14 = icmp eq ptr %13, null
  br i1 %14, label %15, label %_ZN4lean15io_result_mk_okEP11lean_object.exit

15:                                               ; preds = %9
  tail call void @lean_internal_panic_out_of_memory() #28
  unreachable

_ZN4lean15io_result_mk_okEP11lean_object.exit:    ; preds = %9, %5
  %.sink9 = phi ptr [ %6, %5 ], [ %13, %9 ]
  %.sink6 = phi i32 [ 131096, %5 ], [ 16908312, %9 ]
  %.sink = phi ptr [ inttoptr (i64 1 to ptr), %5 ], [ %12, %9 ]
  %16 = getelementptr inbounds nuw i8, ptr %.sink9, i64 4
  store i32 1, ptr %.sink9, align 4, !tbaa !7
  store i32 %.sink6, ptr %16, align 4
  %17 = getelementptr inbounds nuw i8, ptr %.sink9, i64 8
  store ptr %.sink, ptr %17, align 8, !tbaa !3
  %18 = getelementptr inbounds nuw i8, ptr %.sink9, i64 16
  store ptr inttoptr (i64 1 to ptr), ptr %18, align 8, !tbaa !3
  ret ptr %.sink9
}